target datalayout = "e-m:e-p270:32:32-p271:32:32-p272:64:64-i64:64-i128:128-f80:128-n8:16:32:64-S128"
target triple = "x86_64-pc-linux-gnu"

%struct.Int_Man_t_ = type { ptr, [16 x i32], i32, i32, i32, i32, i32, i32, i32, i32, ptr, ptr, ptr, ptr, ptr, i32, ptr, ptr, i32, i32, i32, ptr, ptr, ptr, i32, i32, i64, i64, i64 }

; Function Attrs: nounwind uwtable
define void @Int_ManFree(ptr noundef %0) #0 {
  %2 = alloca ptr, align 8
  store ptr %0, ptr %2, align 8, !tbaa !3
  %3 = load ptr, ptr %2, align 8, !tbaa !3
  %4 = getelementptr inbounds nuw %struct.Int_Man_t_, ptr %3, i32 0, i32 17
  %5 = load ptr, ptr %4, align 8, !tbaa !52
  %6 = icmp ne ptr %5, null
  br i1 %6, label %7, label %13

7:                                                ; preds = %1
  %8 = load ptr, ptr %2, align 8, !tbaa !3
  %9 = getelementptr inbounds nuw %struct.Int_Man_t_, ptr %8, i32 0, i32 17
  %10 = load ptr, ptr %9, align 8, !tbaa !52
  call void @free(ptr noundef %10) #9
  %11 = load ptr, ptr %2, align 8, !tbaa !3
  %12 = getelementptr inbounds nuw %struct.Int_Man_t_, ptr %11, i32 0, i32 17
  store ptr null, ptr %12, align 8, !tbaa !52
  br label %14

13:                                               ; preds = %1
  br label %14

14:                                               ; preds = %13, %7
  %15 = load ptr, ptr %2, align 8, !tbaa !3
  %16 = getelementptr inbounds nuw %struct.Int_Man_t_, ptr %15, i32 0, i32 21
  %17 = load ptr, ptr %16, align 8, !tbaa !50
  %18 = icmp ne ptr %17, null
  br i1 %18, label %19, label %25

19:                                               ; preds = %14
  %20 = load ptr, ptr %2, align 8, !tbaa !3
  %21 = getelementptr inbounds nuw %struct.Int_Man_t_, ptr %20, i32 0, i32 21
  %22 = load ptr, ptr %21, align 8, !tbaa !50
  call void @free(ptr noundef %22) #9
  %23 = load ptr, ptr %2, align 8, !tbaa !3
  %24 = getelementptr inbounds nuw %struct.Int_Man_t_, ptr %23, i32 0, i32 21
  store ptr null, ptr %24, align 8, !tbaa !50
  br label %26

25:                                               ; preds = %14
  br label %26

26:                                               ; preds = %25, %19
  %27 = load ptr, ptr %2, align 8, !tbaa !3
  %28 = getelementptr inbounds nuw %struct.Int_Man_t_, ptr %27, i32 0, i32 10
  %29 = load ptr, ptr %28, align 8, !tbaa !40
  %30 = icmp ne ptr %29, null
  br i1 %30, label %31, label %37

31:                                               ; preds = %26
  %32 = load ptr, ptr %2, align 8, !tbaa !3
  %33 = getelementptr inbounds nuw %struct.Int_Man_t_, ptr %32, i32 0, i32 10
  %34 = load ptr, ptr %33, align 8, !tbaa !40
  call void @free(ptr noundef %34) #9
  %35 = load ptr, ptr %2, align 8, !tbaa !3
  %36 = getelementptr inbounds nuw %struct.Int_Man_t_, ptr %35, i32 0, i32 10
  store ptr null, ptr %36, align 8, !tbaa !40
  br label %38

37:                                               ; preds = %26
  br label %38

38:                                               ; preds = %37, %31
  %39 = load ptr, ptr %2, align 8, !tbaa !3
  %40 = getelementptr inbounds nuw %struct.Int_Man_t_, ptr %39, i32 0, i32 11
  %41 = load ptr, ptr %40, align 8, !tbaa !41
  %42 = icmp ne ptr %41, null
  br i1 %42, label %43, label %49

43:                                               ; preds = %38
  %44 = load ptr, ptr %2, align 8, !tbaa !3
  %45 = getelementptr inbounds nuw %struct.Int_Man_t_, ptr %44, i32 0, i32 11
  %46 = load ptr, ptr %45, align 8, !tbaa !41
  call void @free(ptr noundef %46) #9
  %47 = load ptr, ptr %2, align 8, !tbaa !3
  %48 = getelementptr inbounds nuw %struct.Int_Man_t_, ptr %47, i32 0, i32 11
  store ptr null, ptr %48, align 8, !tbaa !41
  br label %50

49:                                               ; preds = %38
  br label %50

50:                                               ; preds = %49, %43
  %51 = load ptr, ptr %2, align 8, !tbaa !3
  %52 = getelementptr inbounds nuw %struct.Int_Man_t_, ptr %51, i32 0, i32 12
  %53 = load ptr, ptr %52, align 8, !tbaa !42
  %54 = icmp ne ptr %53, null
  br i1 %54, label %55, label %61

55:                                               ; preds = %50
  %56 = load ptr, ptr %2, align 8, !tbaa !3
  %57 = getelementptr inbounds nuw %struct.Int_Man_t_, ptr %56, i32 0, i32 12
  %58 = load ptr, ptr %57, align 8, !tbaa !42
  call void @free(ptr noundef %58) #9
  %59 = load ptr, ptr %2, align 8, !tbaa !3
  %60 = getelementptr inbounds nuw %struct.Int_Man_t_, ptr %59, i32 0, i32 12
  store ptr null, ptr %60, align 8, !tbaa !42
  br label %62

61:                                               ; preds = %50
  br label %62

62:                                               ; preds = %61, %55
  %63 = load ptr, ptr %2, align 8, !tbaa !3
  %64 = getelementptr inbounds nuw %struct.Int_Man_t_, ptr %63, i32 0, i32 16
  %65 = load ptr, ptr %64, align 8, !tbaa !27
  %66 = icmp ne ptr %65, null
  br i1 %66, label %67, label %73

67:                                               ; preds = %62
  %68 = load ptr, ptr %2, align 8, !tbaa !3
  %69 = getelementptr inbounds nuw %struct.Int_Man_t_, ptr %68, i32 0, i32 16
  %70 = load ptr, ptr %69, align 8, !tbaa !27
  call void @free(ptr noundef %70) #9
  %71 = load ptr, ptr %2, align 8, !tbaa !3
  %72 = getelementptr inbounds nuw %struct.Int_Man_t_, ptr %71, i32 0, i32 16
  store ptr null, ptr %72, align 8, !tbaa !27
  br label %74

73:                                               ; preds = %62
  br label %74

74:                                               ; preds = %73, %67
  %75 = load ptr, ptr %2, align 8, !tbaa !3
  %76 = getelementptr inbounds nuw %struct.Int_Man_t_, ptr %75, i32 0, i32 13
  %77 = load ptr, ptr %76, align 8, !tbaa !43
  %78 = icmp ne ptr %77, null
  br i1 %78, label %79, label %85

79:                                               ; preds = %74
  %80 = load ptr, ptr %2, align 8, !tbaa !3
  %81 = getelementptr inbounds nuw %struct.Int_Man_t_, ptr %80, i32 0, i32 13
  %82 = load ptr, ptr %81, align 8, !tbaa !43
  call void @free(ptr noundef %82) #9
  %83 = load ptr, ptr %2, align 8, !tbaa !3
  %84 = getelementptr inbounds nuw %struct.Int_Man_t_, ptr %83, i32 0, i32 13
  store ptr null, ptr %84, align 8, !tbaa !43
  br label %86

85:                                               ; preds = %74
  br label %86

86:                                               ; preds = %85, %79
  %87 = load ptr, ptr %2, align 8, !tbaa !3
  %88 = getelementptr inbounds nuw %struct.Int_Man_t_, ptr %87, i32 0, i32 14
  %89 = load ptr, ptr %88, align 8, !tbaa !44
  %90 = icmp ne ptr %89, null
  br i1 %90, label %91, label %97

91:                                               ; preds = %86
  %92 = load ptr, ptr %2, align 8, !tbaa !3
  %93 = getelementptr inbounds nuw %struct.Int_Man_t_, ptr %92, i32 0, i32 14
  %94 = load ptr, ptr %93, align 8, !tbaa !44
  call void @free(ptr noundef %94) #9
  %95 = load ptr, ptr %2, align 8, !tbaa !3
  %96 = getelementptr inbounds nuw %struct.Int_Man_t_, ptr %95, i32 0, i32 14
  store ptr null, ptr %96, align 8, !tbaa !44
  br label %98

97:                                               ; preds = %86
  br label %98

98:                                               ; preds = %97, %91
  %99 = load ptr, ptr %2, align 8, !tbaa !3
  %100 = getelementptr inbounds nuw %struct.Int_Man_t_, ptr %99, i32 0, i32 23
  %101 = load ptr, ptr %100, align 8, !tbaa !17
  %102 = icmp ne ptr %101, null
  br i1 %102, label %103, label %109

103:                                              ; preds = %98
  %104 = load ptr, ptr %2, align 8, !tbaa !3
  %105 = getelementptr inbounds nuw %struct.Int_Man_t_, ptr %104, i32 0, i32 23
  %106 = load ptr, ptr %105, align 8, !tbaa !17
  call void @free(ptr noundef %106) #9
  %107 = load ptr, ptr %2, align 8, !tbaa !3
  %108 = getelementptr inbounds nuw %struct.Int_Man_t_, ptr %107, i32 0, i32 23
  store ptr null, ptr %108, align 8, !tbaa !17
  br label %110

109:                                              ; preds = %98
  br label %110

110:                                              ; preds = %109, %103
  %111 = load ptr, ptr %2, align 8, !tbaa !3
  %112 = icmp ne ptr %111, null
  br i1 %112, label %113, label %115

113:                                              ; preds = %110
  %114 = load ptr, ptr %2, align 8, !tbaa !3
  call void @free(ptr noundef %114) #9
  store ptr null, ptr %2, align 8, !tbaa !3
  br label %116

115:                                              ; preds = %110
  br label %116

116:                                              ; preds = %115, %113
  ret void
}