; Function Attrs: mustprogress nounwind willreturn uwtable
define void @Int_ManFree(ptr noundef captures(none) %0) local_unnamed_addr #8 {
  %2 = getelementptr inbounds nuw i8, ptr %0, i64 160
  %3 = load ptr, ptr %2, align 8, !tbaa !46
  %.not = icmp eq ptr %3, null
  br i1 %.not, label %5, label %4

4:                                                ; preds = %1
  tail call void @free(ptr noundef nonnull %3) #19
  store ptr null, ptr %2, align 8, !tbaa !46
  br label %5

5:                                                ; preds = %1, %4
  %6 = getelementptr inbounds nuw i8, ptr %0, i64 184
  %7 = load ptr, ptr %6, align 8, !tbaa !43
  %.not38 = icmp eq ptr %7, null
  br i1 %.not38, label %9, label %8

8:                                                ; preds = %5
  tail call void @free(ptr noundef nonnull %7) #19
  store ptr null, ptr %6, align 8, !tbaa !43
  br label %9

9:                                                ; preds = %5, %8
  %10 = getelementptr inbounds nuw i8, ptr %0, i64 104
  %11 = load ptr, ptr %10, align 8, !tbaa !34
  %.not39 = icmp eq ptr %11, null
  br i1 %.not39, label %13, label %12

12:                                               ; preds = %9
  tail call void @free(ptr noundef nonnull %11) #19
  store ptr null, ptr %10, align 8, !tbaa !34
  br label %13

13:                                               ; preds = %9, %12
  %14 = getelementptr inbounds nuw i8, ptr %0, i64 112
  %15 = load ptr, ptr %14, align 8, !tbaa !35
  %.not40 = icmp eq ptr %15, null
  br i1 %.not40, label %17, label %16

16:                                               ; preds = %13
  tail call void @free(ptr noundef nonnull %15) #19
  store ptr null, ptr %14, align 8, !tbaa !35
  br label %17

17:                                               ; preds = %13, %16
  %18 = getelementptr inbounds nuw i8, ptr %0, i64 120
  %19 = load ptr, ptr %18, align 8, !tbaa !36
  %.not41 = icmp eq ptr %19, null
  br i1 %.not41, label %21, label %20

20:                                               ; preds = %17
  tail call void @free(ptr noundef nonnull %19) #19
  store ptr null, ptr %18, align 8, !tbaa !36
  br label %21

21:                                               ; preds = %17, %20
  %22 = getelementptr inbounds nuw i8, ptr %0, i64 152
  %23 = load ptr, ptr %22, align 8, !tbaa !23
  %.not42 = icmp eq ptr %23, null
  br i1 %.not42, label %25, label %24

24:                                               ; preds = %21
  tail call void @free(ptr noundef nonnull %23) #19
  store ptr null, ptr %22, align 8, !tbaa !23
  br label %25

25:                                               ; preds = %21, %24
  %26 = getelementptr inbounds nuw i8, ptr %0, i64 128
  %27 = load ptr, ptr %26, align 8, !tbaa !37
  %.not43 = icmp eq ptr %27, null
  br i1 %.not43, label %29, label %28

28:                                               ; preds = %25
  tail call void @free(ptr noundef nonnull %27) #19
  store ptr null, ptr %26, align 8, !tbaa !37
  br label %29

29:                                               ; preds = %25, %28
  %30 = getelementptr inbounds nuw i8, ptr %0, i64 136
  %31 = load ptr, ptr %30, align 8, !tbaa !38
  %.not44 = icmp eq ptr %31, null
  br i1 %.not44, label %33, label %32

32:                                               ; preds = %29
  tail call void @free(ptr noundef nonnull %31) #19
  store ptr null, ptr %30, align 8, !tbaa !38
  br label %33

33:                                               ; preds = %29, %32
  %34 = getelementptr inbounds nuw i8, ptr %0, i64 200
  %35 = load ptr, ptr %34, align 8, !tbaa !15
  %.not45 = icmp eq ptr %35, null
  br i1 %.not45, label %37, label %36

36:                                               ; preds = %33
  tail call void @free(ptr noundef nonnull %35) #19
  br label %37

37:                                               ; preds = %33, %36
  tail call void @free(ptr noundef nonnull %0) #19
  ret void
}